target datalayout = "e-m:e-p270:32:32-p271:32:32-p272:64:64-i64:64-i128:128-f80:128-n8:16:32:64-S128"
target triple = "x86_64-pc-linux-gnu"

%struct._fcgi_request = type { i32, i32, i32, i32, i32, i32, i32, i32, i32, ptr, ptr, [8192 x i8], [16 x i8], %struct._fcgi_req_hook, i32, %struct._fcgi_hash }
%struct._fcgi_req_hook = type { ptr, ptr, ptr }
%struct._fcgi_hash = type { [128 x ptr], ptr, ptr, ptr }
%struct._fcgi_header = type { i8, i8, i8, i8, i8, i8, i8, i8 }

; Function Attrs: nounwind uwtable
define internal i64 @safe_read(ptr noundef %0, ptr noundef %1, i64 noundef %2) #0 {
  %4 = alloca i64, align 8
  %5 = alloca ptr, align 8
  %6 = alloca ptr, align 8
  %7 = alloca i64, align 8
  %8 = alloca i32, align 4
  %9 = alloca i64, align 8
  store ptr %0, ptr %5, align 8
  store ptr %1, ptr %6, align 8
  store i64 %2, ptr %7, align 8
  store i64 0, ptr %9, align 8
  br label %10

10:                                               ; preds = %56, %3
  %11 = call ptr @__errno_location() #14
  store i32 0, ptr %11, align 4
  %12 = load ptr, ptr %5, align 8
  %13 = getelementptr inbounds %struct._fcgi_request, ptr %12, i32 0, i32 2
  %14 = load i32, ptr %13, align 8
  %15 = load ptr, ptr %6, align 8
  %16 = load i64, ptr %9, align 8
  %17 = getelementptr inbounds i8, ptr %15, i64 %16
  %18 = load i64, ptr %7, align 8
  %19 = load i64, ptr %9, align 8
  %20 = sub i64 %18, %19
  %21 = call i64 @read(i32 noundef %14, ptr noundef %17, i64 noundef %20)
  %22 = trunc i64 %21 to i32
  store i32 %22, ptr %8, align 4
  %23 = load i32, ptr %8, align 4
  %24 = icmp sgt i32 %23, 0
  br i1 %24, label %25, label %30

25:                                               ; preds = %10
  %26 = load i32, ptr %8, align 4
  %27 = sext i32 %26 to i64
  %28 = load i64, ptr %9, align 8
  %29 = add i64 %28, %27
  store i64 %29, ptr %9, align 8
  br label %55

30:                                               ; preds = %10
  %31 = load i32, ptr %8, align 4
  %32 = icmp eq i32 %31, 0
  br i1 %32, label %33, label %39

33:                                               ; preds = %30
  %34 = call ptr @__errno_location() #14
  %35 = load i32, ptr %34, align 4
  %36 = icmp eq i32 %35, 0
  br i1 %36, label %37, label %39

37:                                               ; preds = %33
  %38 = load i64, ptr %9, align 8
  store i64 %38, ptr %4, align 8
  br label %62

39:                                               ; preds = %33, %30
  %40 = load i32, ptr %8, align 4
  %41 = icmp sle i32 %40, 0
  br i1 %41, label %42, label %53

42:                                               ; preds = %39
  %43 = call ptr @__errno_location() #14
  %44 = load i32, ptr %43, align 4
  %45 = icmp ne i32 %44, 0
  br i1 %45, label %46, label %53

46:                                               ; preds = %42
  %47 = call ptr @__errno_location() #14
  %48 = load i32, ptr %47, align 4
  %49 = icmp ne i32 %48, 4
  br i1 %49, label %50, label %53

50:                                               ; preds = %46
  %51 = load i32, ptr %8, align 4
  %52 = sext i32 %51 to i64
  store i64 %52, ptr %4, align 8
  br label %62

53:                                               ; preds = %46, %42, %39
  br label %54

54:                                               ; preds = %53
  br label %55

55:                                               ; preds = %54, %25
  br label %56

56:                                               ; preds = %55
  %57 = load i64, ptr %9, align 8
  %58 = load i64, ptr %7, align 8
  %59 = icmp ne i64 %57, %58
  br i1 %59, label %10, label %60

60:                                               ; preds = %56
  %61 = load i64, ptr %9, align 8
  store i64 %61, ptr %4, align 8
  br label %62

62:                                               ; preds = %60, %50, %37
  %63 = load i64, ptr %4, align 8
  ret i64 %63
}

; Function Attrs: nounwind uwtable
define hidden i32 @fcgi_read(ptr noundef %0, ptr noundef %1, i32 noundef %2) #0 {
  %4 = alloca i32, align 4
  %5 = alloca ptr, align 8
  %6 = alloca ptr, align 8
  %7 = alloca i32, align 4
  %8 = alloca i32, align 4
  %9 = alloca i32, align 4
  %10 = alloca i32, align 4
  %11 = alloca %struct._fcgi_header, align 1
  %12 = alloca [255 x i8], align 16
  store ptr %0, ptr %5, align 8
  store ptr %1, ptr %6, align 8
  store i32 %2, ptr %7, align 4
  store i32 0, ptr %9, align 4
  %13 = load i32, ptr %7, align 4
  store i32 %13, ptr %10, align 4
  br label %14

14:                                               ; preds = %144, %3
  %15 = load i32, ptr %10, align 4
  %16 = icmp sgt i32 %15, 0
  br i1 %16, label %17, label %145

17:                                               ; preds = %14
  %18 = load ptr, ptr %5, align 8
  %19 = getelementptr inbounds %struct._fcgi_request, ptr %18, i32 0, i32 7
  %20 = load i32, ptr %19, align 4
  %21 = icmp eq i32 %20, 0
  br i1 %21, label %22, label %62

22:                                               ; preds = %17
  %23 = load ptr, ptr %5, align 8
  %24 = call i64 @safe_read(ptr noundef %23, ptr noundef %11, i64 noundef 8)
  %25 = icmp ne i64 %24, 8
  br i1 %25, label %36, label %26

26:                                               ; preds = %22
  %27 = getelementptr inbounds %struct._fcgi_header, ptr %11, i32 0, i32 0
  %28 = load i8, ptr %27, align 1
  %29 = zext i8 %28 to i32
  %30 = icmp slt i32 %29, 1
  br i1 %30, label %36, label %31

31:                                               ; preds = %26
  %32 = getelementptr inbounds %struct._fcgi_header, ptr %11, i32 0, i32 1
  %33 = load i8, ptr %32, align 1
  %34 = zext i8 %33 to i32
  %35 = icmp ne i32 %34, 5
  br i1 %35, label %36, label %39

36:                                               ; preds = %31, %26, %22
  %37 = load ptr, ptr %5, align 8
  %38 = getelementptr inbounds %struct._fcgi_request, ptr %37, i32 0, i32 4
  store i32 0, ptr %38, align 8
  store i32 0, ptr %4, align 4
  br label %147

39:                                               ; preds = %31
  %40 = getelementptr inbounds %struct._fcgi_header, ptr %11, i32 0, i32 4
  %41 = load i8, ptr %40, align 1
  %42 = zext i8 %41 to i32
  %43 = shl i32 %42, 8
  %44 = getelementptr inbounds %struct._fcgi_header, ptr %11, i32 0, i32 5
  %45 = load i8, ptr %44, align 1
  %46 = zext i8 %45 to i32
  %47 = or i32 %43, %46
  %48 = load ptr, ptr %5, align 8
  %49 = getelementptr inbounds %struct._fcgi_request, ptr %48, i32 0, i32 7
  store i32 %47, ptr %49, align 4
  %50 = getelementptr inbounds %struct._fcgi_header, ptr %11, i32 0, i32 6
  %51 = load i8, ptr %50, align 1
  %52 = zext i8 %51 to i32
  %53 = load ptr, ptr %5, align 8
  %54 = getelementptr inbounds %struct._fcgi_request, ptr %53, i32 0, i32 8
  store i32 %52, ptr %54, align 8
  %55 = load ptr, ptr %5, align 8
  %56 = getelementptr inbounds %struct._fcgi_request, ptr %55, i32 0, i32 7
  %57 = load i32, ptr %56, align 4
  %58 = icmp eq i32 %57, 0
  br i1 %58, label %59, label %61

59:                                               ; preds = %39
  %60 = load i32, ptr %9, align 4
  store i32 %60, ptr %4, align 4
  br label %147

61:                                               ; preds = %39
  br label %62

62:                                               ; preds = %61, %17
  %63 = load ptr, ptr %5, align 8
  %64 = getelementptr inbounds %struct._fcgi_request, ptr %63, i32 0, i32 7
  %65 = load i32, ptr %64, align 4
  %66 = load i32, ptr %10, align 4
  %67 = icmp sge i32 %65, %66
  br i1 %67, label %68, label %75

68:                                               ; preds = %62
  %69 = load ptr, ptr %5, align 8
  %70 = load ptr, ptr %6, align 8
  %71 = load i32, ptr %10, align 4
  %72 = sext i32 %71 to i64
  %73 = call i64 @safe_read(ptr noundef %69, ptr noundef %70, i64 noundef %72)
  %74 = trunc i64 %73 to i32
  store i32 %74, ptr %8, align 4
  br label %84

75:                                               ; preds = %62
  %76 = load ptr, ptr %5, align 8
  %77 = load ptr, ptr %6, align 8
  %78 = load ptr, ptr %5, align 8
  %79 = getelementptr inbounds %struct._fcgi_request, ptr %78, i32 0, i32 7
  %80 = load i32, ptr %79, align 4
  %81 = sext i32 %80 to i64
  %82 = call i64 @safe_read(ptr noundef %76, ptr noundef %77, i64 noundef %81)
  %83 = trunc i64 %82 to i32
  store i32 %83, ptr %8, align 4
  br label %84

84:                                               ; preds = %75, %68
  %85 = load i32, ptr %8, align 4
  %86 = icmp slt i32 %85, 0
  br i1 %86, label %87, label %91

87:                                               ; preds = %84
  %88 = load ptr, ptr %5, align 8
  %89 = getelementptr inbounds %struct._fcgi_request, ptr %88, i32 0, i32 4
  store i32 0, ptr %89, align 8
  %90 = load i32, ptr %8, align 4
  store i32 %90, ptr %4, align 4
  br label %147

91:                                               ; preds = %84
  %92 = load i32, ptr %8, align 4
  %93 = icmp sgt i32 %92, 0
  br i1 %93, label %94, label %141

94:                                               ; preds = %91
  %95 = load i32, ptr %8, align 4
  %96 = load ptr, ptr %5, align 8
  %97 = getelementptr inbounds %struct._fcgi_request, ptr %96, i32 0, i32 7
  %98 = load i32, ptr %97, align 4
  %99 = sub nsw i32 %98, %95
  store i32 %99, ptr %97, align 4
  %100 = load i32, ptr %8, align 4
  %101 = load i32, ptr %10, align 4
  %102 = sub nsw i32 %101, %100
  store i32 %102, ptr %10, align 4
  %103 = load i32, ptr %8, align 4
  %104 = load i32, ptr %9, align 4
  %105 = add nsw i32 %104, %103
  store i32 %105, ptr %9, align 4
  %106 = load i32, ptr %8, align 4
  %107 = load ptr, ptr %6, align 8
  %108 = sext i32 %106 to i64
  %109 = getelementptr inbounds i8, ptr %107, i64 %108
  store ptr %109, ptr %6, align 8
  %110 = load ptr, ptr %5, align 8
  %111 = getelementptr inbounds %struct._fcgi_request, ptr %110, i32 0, i32 7
  %112 = load i32, ptr %111, align 4
  %113 = icmp eq i32 %112, 0
  br i1 %113, label %114, label %138

114:                                              ; preds = %94
  %115 = load ptr, ptr %5, align 8
  %116 = getelementptr inbounds %struct._fcgi_request, ptr %115, i32 0, i32 8
  %117 = load i32, ptr %116, align 8
  %118 = icmp ne i32 %117, 0
  br i1 %118, label %119, label %137

119:                                              ; preds = %114
  %120 = load ptr, ptr %5, align 8
  %121 = getelementptr inbounds [255 x i8], ptr %12, i64 0, i64 0
  %122 = load ptr, ptr %5, align 8
  %123 = getelementptr inbounds %struct._fcgi_request, ptr %122, i32 0, i32 8
  %124 = load i32, ptr %123, align 8
  %125 = sext i32 %124 to i64
  %126 = call i64 @safe_read(ptr noundef %120, ptr noundef %121, i64 noundef %125)
  %127 = load ptr, ptr %5, align 8
  %128 = getelementptr inbounds %struct._fcgi_request, ptr %127, i32 0, i32 8
  %129 = load i32, ptr %128, align 8
  %130 = sext i32 %129 to i64
  %131 = icmp ne i64 %126, %130
  br i1 %131, label %132, label %136

132:                                              ; preds = %119
  %133 = load ptr, ptr %5, align 8
  %134 = getelementptr inbounds %struct._fcgi_request, ptr %133, i32 0, i32 4
  store i32 0, ptr %134, align 8
  %135 = load i32, ptr %8, align 4
  store i32 %135, ptr %4, align 4
  br label %147

136:                                              ; preds = %119
  br label %137

137:                                              ; preds = %136, %114
  br label %140

138:                                              ; preds = %94
  %139 = load i32, ptr %9, align 4
  store i32 %139, ptr %4, align 4
  br label %147

140:                                              ; preds = %137
  br label %143

141:                                              ; preds = %91
  %142 = load i32, ptr %9, align 4
  store i32 %142, ptr %4, align 4
  br label %147

143:                                              ; preds = %140
  br label %144

144:                                              ; preds = %143
  br label %14

145:                                              ; preds = %14
  %146 = load i32, ptr %9, align 4
  store i32 %146, ptr %4, align 4
  br label %147

147:                                              ; preds = %145, %141, %138, %132, %87, %59, %36
  %148 = load i32, ptr %4, align 4
  ret i32 %148
}