; Function Attrs: nofree nounwind uwtable
define hidden i32 @fcgi_read(ptr nocapture noundef %0, ptr nocapture noundef %1, i32 noundef %2) local_unnamed_addr #22 {
  %4 = alloca %struct._fcgi_header, align 1
  %5 = alloca [255 x i8], align 16
  %6 = icmp sgt i32 %2, 0
  br i1 %6, label %.lr.ph, label %.loopexit

.lr.ph:                                           ; preds = %3
  %7 = getelementptr inbounds i8, ptr %0, i64 28
  %8 = getelementptr inbounds i8, ptr %0, i64 8
  %9 = getelementptr inbounds i8, ptr %4, i64 1
  %10 = getelementptr inbounds i8, ptr %4, i64 4
  %11 = getelementptr inbounds i8, ptr %4, i64 5
  %12 = getelementptr inbounds i8, ptr %4, i64 6
  %13 = getelementptr inbounds i8, ptr %0, i64 32
  br label %14

14:                                               ; preds = %.lr.ph, %126
  %.089 = phi i32 [ %2, %.lr.ph ], [ %97, %126 ]
  %.04688 = phi i32 [ 0, %.lr.ph ], [ %98, %126 ]
  %.04986 = phi ptr [ %1, %.lr.ph ], [ %100, %126 ]
  %15 = load i32, ptr %7, align 4
  %16 = icmp eq i32 %15, 0
  br i1 %16, label %17, label %51

17:                                               ; preds = %14
  %18 = tail call ptr @__errno_location() #34
  br label %19

19:                                               ; preds = %35, %17
  %.0.i = phi i64 [ 0, %17 ], [ %.1.i, %35 ]
  store i32 0, ptr %18, align 4
  %20 = load i32, ptr %8, align 8
  %21 = getelementptr inbounds i8, ptr %4, i64 %.0.i
  %22 = sub i64 8, %.0.i
  %23 = call i64 @read(i32 noundef %20, ptr noundef nonnull %21, i64 noundef %22) #32
  %24 = trunc i64 %23 to i32
  %25 = icmp sgt i32 %24, 0
  br i1 %25, label %26, label %29

26:                                               ; preds = %19
  %27 = and i64 %23, 4294967295
  %28 = add i64 %27, %.0.i
  br label %35

29:                                               ; preds = %19
  %30 = icmp eq i32 %24, 0
  %31 = load i32, ptr %18, align 4
  %32 = icmp eq i32 %31, 0
  %or.cond.i = select i1 %30, i1 %32, i1 false
  br i1 %or.cond.i, label %safe_read.exit, label %thread-pre-split.i

thread-pre-split.i:                               ; preds = %29
  switch i32 %31, label %33 [
    i32 0, label %35
    i32 4, label %35
  ]

33:                                               ; preds = %thread-pre-split.i
  %sext.i = shl i64 %23, 32
  %34 = ashr exact i64 %sext.i, 32
  br label %safe_read.exit

35:                                               ; preds = %thread-pre-split.i, %thread-pre-split.i, %26
  %.1.i = phi i64 [ %28, %26 ], [ %.0.i, %thread-pre-split.i ], [ %.0.i, %thread-pre-split.i ]
  %.not20.i = icmp eq i64 %.1.i, 8
  br i1 %.not20.i, label %safe_read.exit, label %19

safe_read.exit:                                   ; preds = %29, %35, %33
  %.015.i = phi i64 [ %34, %33 ], [ %.0.i, %29 ], [ 8, %35 ]
  %36 = icmp ne i64 %.015.i, 8
  %37 = load i8, ptr %4, align 1
  %38 = icmp eq i8 %37, 0
  %or.cond = select i1 %36, i1 true, i1 %38
  %39 = load i8, ptr %9, align 1
  %40 = icmp ne i8 %39, 5
  %or.cond7 = select i1 %or.cond, i1 true, i1 %40
  br i1 %or.cond7, label %.loopexit.sink.split, label %41

41:                                               ; preds = %safe_read.exit
  %42 = load i8, ptr %10, align 1
  %43 = zext i8 %42 to i32
  %44 = shl nuw nsw i32 %43, 8
  %45 = load i8, ptr %11, align 1
  %46 = zext i8 %45 to i32
  %47 = or disjoint i32 %44, %46
  store i32 %47, ptr %7, align 4
  %48 = load i8, ptr %12, align 1
  %49 = zext i8 %48 to i32
  store i32 %49, ptr %13, align 8
  %50 = icmp eq i32 %47, 0
  br i1 %50, label %.loopexit, label %51

51:                                               ; preds = %41, %14
  %52 = phi i32 [ %47, %41 ], [ %15, %14 ]
  %.not = icmp slt i32 %52, %.089
  %53 = tail call ptr @__errno_location() #34
  br i1 %.not, label %73, label %54

54:                                               ; preds = %51
  %55 = zext nneg i32 %.089 to i64
  br label %56

56:                                               ; preds = %72, %54
  %.0.i55 = phi i64 [ 0, %54 ], [ %.1.i58, %72 ]
  store i32 0, ptr %53, align 4
  %57 = load i32, ptr %8, align 8
  %58 = getelementptr inbounds i8, ptr %.04986, i64 %.0.i55
  %59 = sub i64 %55, %.0.i55
  %60 = tail call i64 @read(i32 noundef %57, ptr noundef %58, i64 noundef %59) #32
  %61 = trunc i64 %60 to i32
  %62 = icmp sgt i32 %61, 0
  br i1 %62, label %63, label %66

63:                                               ; preds = %56
  %64 = and i64 %60, 4294967295
  %65 = add i64 %64, %.0.i55
  br label %72

66:                                               ; preds = %56
  %67 = icmp eq i32 %61, 0
  %68 = load i32, ptr %53, align 4
  %69 = icmp eq i32 %68, 0
  %or.cond.i56 = select i1 %67, i1 %69, i1 false
  br i1 %or.cond.i56, label %safe_read.exit62, label %thread-pre-split.i57

thread-pre-split.i57:                             ; preds = %66
  switch i32 %68, label %70 [
    i32 0, label %72
    i32 4, label %72
  ]

70:                                               ; preds = %thread-pre-split.i57
  %sext.i61 = shl i64 %60, 32
  %71 = ashr exact i64 %sext.i61, 32
  br label %safe_read.exit62

72:                                               ; preds = %thread-pre-split.i57, %thread-pre-split.i57, %63
  %.1.i58 = phi i64 [ %65, %63 ], [ %.0.i55, %thread-pre-split.i57 ], [ %.0.i55, %thread-pre-split.i57 ]
  %.not20.i59 = icmp eq i64 %.1.i58, %55
  br i1 %.not20.i59, label %safe_read.exit62, label %56

73:                                               ; preds = %51
  %74 = sext i32 %52 to i64
  br label %75

75:                                               ; preds = %91, %73
  %.0.i63 = phi i64 [ 0, %73 ], [ %.1.i66, %91 ]
  store i32 0, ptr %53, align 4
  %76 = load i32, ptr %8, align 8
  %77 = getelementptr inbounds i8, ptr %.04986, i64 %.0.i63
  %78 = sub i64 %74, %.0.i63
  %79 = tail call i64 @read(i32 noundef %76, ptr noundef %77, i64 noundef %78) #32
  %80 = trunc i64 %79 to i32
  %81 = icmp sgt i32 %80, 0
  br i1 %81, label %82, label %85

82:                                               ; preds = %75
  %83 = and i64 %79, 4294967295
  %84 = add i64 %83, %.0.i63
  br label %91

85:                                               ; preds = %75
  %86 = icmp eq i32 %80, 0
  %87 = load i32, ptr %53, align 4
  %88 = icmp eq i32 %87, 0
  %or.cond.i64 = select i1 %86, i1 %88, i1 false
  br i1 %or.cond.i64, label %safe_read.exit62, label %thread-pre-split.i65

thread-pre-split.i65:                             ; preds = %85
  switch i32 %87, label %89 [
    i32 0, label %91
    i32 4, label %91
  ]

89:                                               ; preds = %thread-pre-split.i65
  %sext.i69 = shl i64 %79, 32
  %90 = ashr exact i64 %sext.i69, 32
  br label %safe_read.exit62

91:                                               ; preds = %thread-pre-split.i65, %thread-pre-split.i65, %82
  %.1.i66 = phi i64 [ %84, %82 ], [ %.0.i63, %thread-pre-split.i65 ], [ %.0.i63, %thread-pre-split.i65 ]
  %.not20.i67 = icmp eq i64 %.1.i66, %74
  br i1 %.not20.i67, label %safe_read.exit62, label %75

safe_read.exit62:                                 ; preds = %72, %66, %91, %85, %89, %70
  %.047.in = phi i64 [ %71, %70 ], [ %90, %89 ], [ %.0.i63, %85 ], [ %74, %91 ], [ %.0.i55, %66 ], [ %55, %72 ]
  %.047 = trunc i64 %.047.in to i32
  %92 = icmp slt i32 %.047, 0
  br i1 %92, label %.loopexit.sink.split, label %93

93:                                               ; preds = %safe_read.exit62
  %.not52 = icmp eq i32 %.047, 0
  br i1 %.not52, label %.loopexit, label %94

94:                                               ; preds = %93
  %95 = load i32, ptr %7, align 4
  %96 = sub nsw i32 %95, %.047
  store i32 %96, ptr %7, align 4
  %97 = sub nsw i32 %.089, %.047
  %98 = add nuw nsw i32 %.04688, %.047
  %99 = and i64 %.047.in, 4294967295
  %100 = getelementptr inbounds i8, ptr %.04986, i64 %99
  %101 = icmp eq i32 %95, %.047
  br i1 %101, label %102, label %.loopexit

102:                                              ; preds = %94
  %103 = load i32, ptr %13, align 8
  %.not53 = icmp eq i32 %103, 0
  br i1 %.not53, label %126, label %104

104:                                              ; preds = %102
  %105 = sext i32 %103 to i64
  %106 = tail call ptr @__errno_location() #34
  br label %107

107:                                              ; preds = %123, %104
  %.0.i71 = phi i64 [ 0, %104 ], [ %.1.i74, %123 ]
  store i32 0, ptr %106, align 4
  %108 = load i32, ptr %8, align 8
  %109 = getelementptr inbounds i8, ptr %5, i64 %.0.i71
  %110 = sub i64 %105, %.0.i71
  %111 = call i64 @read(i32 noundef %108, ptr noundef nonnull %109, i64 noundef %110) #32
  %112 = trunc i64 %111 to i32
  %113 = icmp sgt i32 %112, 0
  br i1 %113, label %114, label %117

114:                                              ; preds = %107
  %115 = and i64 %111, 4294967295
  %116 = add i64 %115, %.0.i71
  br label %123

117:                                              ; preds = %107
  %118 = icmp eq i32 %112, 0
  %119 = load i32, ptr %106, align 4
  %120 = icmp eq i32 %119, 0
  %or.cond.i72 = select i1 %118, i1 %120, i1 false
  br i1 %or.cond.i72, label %safe_read.exit78, label %thread-pre-split.i73

thread-pre-split.i73:                             ; preds = %117
  switch i32 %119, label %121 [
    i32 0, label %123
    i32 4, label %123
  ]

121:                                              ; preds = %thread-pre-split.i73
  %sext.i77 = shl i64 %111, 32
  %122 = ashr exact i64 %sext.i77, 32
  br label %safe_read.exit78

123:                                              ; preds = %thread-pre-split.i73, %thread-pre-split.i73, %114
  %.1.i74 = phi i64 [ %116, %114 ], [ %.0.i71, %thread-pre-split.i73 ], [ %.0.i71, %thread-pre-split.i73 ]
  %.not20.i75 = icmp eq i64 %.1.i74, %105
  br i1 %.not20.i75, label %safe_read.exit78, label %107

safe_read.exit78:                                 ; preds = %117, %123, %121
  %.015.i76 = phi i64 [ %122, %121 ], [ %.0.i71, %117 ], [ %105, %123 ]
  %124 = load i32, ptr %13, align 8
  %125 = sext i32 %124 to i64
  %.not54 = icmp eq i64 %.015.i76, %125
  br i1 %.not54, label %126, label %.loopexit.sink.split

126:                                              ; preds = %102, %safe_read.exit78
  %127 = icmp sgt i32 %97, 0
  br i1 %127, label %14, label %.loopexit

.loopexit.sink.split:                             ; preds = %safe_read.exit78, %safe_read.exit62, %safe_read.exit
  %.048.ph = phi i32 [ 0, %safe_read.exit ], [ %.047, %safe_read.exit62 ], [ %.047, %safe_read.exit78 ]
  %128 = getelementptr inbounds i8, ptr %0, i64 16
  store i32 0, ptr %128, align 8
  br label %.loopexit

.loopexit:                                        ; preds = %41, %94, %93, %126, %.loopexit.sink.split, %3
  %.048 = phi i32 [ 0, %3 ], [ %.048.ph, %.loopexit.sink.split ], [ %.04688, %41 ], [ %98, %94 ], [ %.04688, %93 ], [ %98, %126 ]
  ret i32 %.048
}